target datalayout = "e-m:e-p270:32:32-p271:32:32-p272:64:64-i64:64-i128:128-f80:128-n8:16:32:64-S128"
target triple = "x86_64-pc-linux-gnu"

%"struct.faiss::InvertedLists.base" = type <{ ptr, i64, i64, i8 }>
%"struct.faiss::ReadOnlyInvertedLists.base" = type { %"struct.faiss::InvertedLists.base" }
%"struct.faiss::MaskedInvertedLists" = type { %"struct.faiss::ReadOnlyInvertedLists.base", ptr, ptr }

; Function Attrs: mustprogress uwtable
define void @_ZNK5faiss19MaskedInvertedLists11release_idsEmPKl(ptr noundef nonnull align 8 dereferenceable(48) %0, i64 noundef %1, ptr noundef %2) unnamed_addr #2 align 2 {
  %4 = alloca ptr, align 8
  %5 = alloca i64, align 8
  %6 = alloca ptr, align 8
  %7 = alloca i64, align 8
  store ptr %0, ptr %4, align 8, !tbaa !55
  store i64 %1, ptr %5, align 8, !tbaa !11
  store ptr %2, ptr %6, align 8, !tbaa !15
  %8 = load ptr, ptr %4, align 8
  call void @llvm.lifetime.start.p0(i64 8, ptr %7) #6
  %9 = getelementptr inbounds nuw %"struct.faiss::MaskedInvertedLists", ptr %8, i32 0, i32 1
  %10 = load ptr, ptr %9, align 8, !tbaa !57
  %11 = load i64, ptr %5, align 8, !tbaa !11
  %12 = load ptr, ptr %10, align 8, !tbaa !17
  %13 = getelementptr inbounds ptr, ptr %12, i64 2
  %14 = load ptr, ptr %13, align 8
  %15 = call noundef i64 %14(ptr noundef nonnull align 8 dereferenceable(25) %10, i64 noundef %11)
  store i64 %15, ptr %7, align 8, !tbaa !11
  %16 = load i64, ptr %7, align 8, !tbaa !11
  %17 = icmp ne i64 %16, 0
  br i1 %17, label %18, label %21

18:                                               ; preds = %3
  %19 = getelementptr inbounds nuw %"struct.faiss::MaskedInvertedLists", ptr %8, i32 0, i32 1
  %20 = load ptr, ptr %19, align 8, !tbaa !57
  br label %24

21:                                               ; preds = %3
  %22 = getelementptr inbounds nuw %"struct.faiss::MaskedInvertedLists", ptr %8, i32 0, i32 2
  %23 = load ptr, ptr %22, align 8, !tbaa !59
  br label %24

24:                                               ; preds = %21, %18
  %25 = phi ptr [ %20, %18 ], [ %23, %21 ]
  %26 = load i64, ptr %5, align 8, !tbaa !11
  %27 = load ptr, ptr %6, align 8, !tbaa !15
  %28 = load ptr, ptr %25, align 8, !tbaa !17
  %29 = getelementptr inbounds ptr, ptr %28, i64 6
  %30 = load ptr, ptr %29, align 8
  call void %30(ptr noundef nonnull align 8 dereferenceable(25) %25, i64 noundef %26, ptr noundef %27)
  call void @llvm.lifetime.end.p0(i64 8, ptr %7) #6
  ret void
}